target datalayout = "e-m:e-p270:32:32-p271:32:32-p272:64:64-i64:64-i128:128-f80:128-n8:16:32:64-S128"
target triple = "x86_64-pc-linux-gnu"

%struct.pg_tm = type { i32, i32, i32, i32, i32, i32, i32, i32, i32, i64, ptr }
%struct.FunctionCallInfoBaseData = type { ptr, ptr, ptr, i32, i8, i16, [0 x %struct.NullableDatum] }
%struct.NullableDatum = type { i64, i8 }
%struct.TimeTzADT = type { i64, i32 }

@.str.3 = private unnamed_addr constant [7 x i8] c"date.c\00", align 1
@.str.19 = private unnamed_addr constant [23 x i8] c"timestamp out of range\00", align 1
@__func__.timestamptz_timetz = private unnamed_addr constant [19 x i8] c"timestamptz_timetz\00", align 1

; Function Attrs: inlinehint nounwind uwtable
define internal i64 @PointerGetDatum(ptr noundef %0) #4 {
  %2 = alloca ptr, align 8
  store ptr %0, ptr %2, align 8
  %3 = load ptr, ptr %2, align 8
  %4 = ptrtoint ptr %3 to i64
  ret i64 %4
}

; Function Attrs: inlinehint nounwind uwtable
define internal i64 @DatumGetInt64(i64 noundef %0) #4 {
  %2 = alloca i64, align 8
  store i64 %0, ptr %2, align 8
  %3 = load i64, ptr %2, align 8
  ret i64 %3
}

; Function Attrs: inlinehint nounwind uwtable
define internal i64 @TimeTzADTPGetDatum(ptr noundef %0) #4 {
  %2 = alloca ptr, align 8
  store ptr %0, ptr %2, align 8
  %3 = load ptr, ptr %2, align 8
  %4 = call i64 @PointerGetDatum(ptr noundef %3)
  ret i64 %4
}

; Function Attrs: nounwind uwtable
define dso_local i32 @tm2timetz(ptr noundef %0, i32 noundef %1, i32 noundef %2, ptr noundef %3) #0 {
  %5 = alloca ptr, align 8
  %6 = alloca i32, align 4
  %7 = alloca i32, align 4
  %8 = alloca ptr, align 8
  store ptr %0, ptr %5, align 8
  store i32 %1, ptr %6, align 4
  store i32 %2, ptr %7, align 4
  store ptr %3, ptr %8, align 8
  %9 = load ptr, ptr %5, align 8
  %10 = getelementptr inbounds nuw %struct.pg_tm, ptr %9, i32 0, i32 2
  %11 = load i32, ptr %10, align 8
  %12 = mul i32 %11, 60
  %13 = load ptr, ptr %5, align 8
  %14 = getelementptr inbounds nuw %struct.pg_tm, ptr %13, i32 0, i32 1
  %15 = load i32, ptr %14, align 4
  %16 = add i32 %12, %15
  %17 = mul i32 %16, 60
  %18 = load ptr, ptr %5, align 8
  %19 = getelementptr inbounds nuw %struct.pg_tm, ptr %18, i32 0, i32 0
  %20 = load i32, ptr %19, align 8
  %21 = add i32 %17, %20
  %22 = sext i32 %21 to i64
  %23 = mul i64 %22, 1000000
  %24 = load i32, ptr %6, align 4
  %25 = sext i32 %24 to i64
  %26 = add i64 %23, %25
  %27 = load ptr, ptr %8, align 8
  %28 = getelementptr inbounds nuw %struct.TimeTzADT, ptr %27, i32 0, i32 0
  store i64 %26, ptr %28, align 8
  %29 = load i32, ptr %7, align 4
  %30 = load ptr, ptr %8, align 8
  %31 = getelementptr inbounds nuw %struct.TimeTzADT, ptr %30, i32 0, i32 1
  store i32 %29, ptr %31, align 8
  ret i32 0
}

; Function Attrs: inlinehint nounwind uwtable
define internal i64 @DatumGetTimestamp(i64 noundef %0) #4 {
  %2 = alloca i64, align 8
  store i64 %0, ptr %2, align 8
  %3 = load i64, ptr %2, align 8
  %4 = call i64 @DatumGetInt64(i64 noundef %3)
  ret i64 %4
}

; Function Attrs: nounwind uwtable
define dso_local i64 @timestamptz_timetz(ptr noundef %0) #0 {
  %2 = alloca i64, align 8
  %3 = alloca ptr, align 8
  %4 = alloca i64, align 8
  %5 = alloca ptr, align 8
  %6 = alloca %struct.pg_tm, align 8
  %7 = alloca ptr, align 8
  %8 = alloca i32, align 4
  %9 = alloca i32, align 4
  %10 = alloca i32, align 4
  store ptr %0, ptr %3, align 8
  call void @llvm.lifetime.start.p0(i64 8, ptr %4) #9
  %11 = load ptr, ptr %3, align 8
  %12 = getelementptr inbounds nuw %struct.FunctionCallInfoBaseData, ptr %11, i32 0, i32 6
  %13 = getelementptr inbounds [0 x %struct.NullableDatum], ptr %12, i64 0, i64 0
  %14 = getelementptr inbounds nuw %struct.NullableDatum, ptr %13, i32 0, i32 0
  %15 = load i64, ptr %14, align 8
  %16 = call i64 @DatumGetTimestamp(i64 noundef %15)
  store i64 %16, ptr %4, align 8
  call void @llvm.lifetime.start.p0(i64 8, ptr %5) #9
  call void @llvm.lifetime.start.p0(i64 56, ptr %6) #9
  call void @llvm.lifetime.start.p0(i64 8, ptr %7) #9
  store ptr %6, ptr %7, align 8
  call void @llvm.lifetime.start.p0(i64 4, ptr %8) #9
  call void @llvm.lifetime.start.p0(i64 4, ptr %9) #9
  %17 = load i64, ptr %4, align 8
  %18 = icmp eq i64 %17, -9223372036854775808
  br i1 %18, label %22, label %19

19:                                               ; preds = %1
  %20 = load i64, ptr %4, align 8
  %21 = icmp eq i64 %20, 9223372036854775807
  br i1 %21, label %22, label %28

22:                                               ; preds = %19, %1
  br label %23

23:                                               ; preds = %22
  %24 = load ptr, ptr %3, align 8
  %25 = getelementptr inbounds nuw %struct.FunctionCallInfoBaseData, ptr %24, i32 0, i32 4
  store i8 1, ptr %25, align 4
  store i64 0, ptr %2, align 8
  store i32 1, ptr %10, align 4
  br label %54

26:                                               ; No predecessors!
  br label %27

27:                                               ; preds = %26
  br label %28

28:                                               ; preds = %27, %19
  %29 = load i64, ptr %4, align 8
  %30 = load ptr, ptr %7, align 8
  %31 = call i32 @timestamp2tm(i64 noundef %29, ptr noundef %8, ptr noundef %30, ptr noundef %9, ptr noundef null, ptr noundef null)
  %32 = icmp ne i32 %31, 0
  br i1 %32, label %33, label %45

33:                                               ; preds = %28
  br label %34

34:                                               ; preds = %33
  br i1 true, label %35, label %37

35:                                               ; preds = %34
  %36 = call zeroext i1 @errstart_cold(i32 noundef 21, ptr noundef null) #8
  br i1 %36, label %39, label %42

37:                                               ; preds = %34
  %38 = call zeroext i1 @errstart(i32 noundef 21, ptr noundef null)
  br i1 %38, label %39, label %42

39:                                               ; preds = %37, %35
  %40 = call i32 @errcode(i32 noundef 134217858)
  %41 = call i32 (ptr, ...) @errmsg(ptr noundef @.str.19)
  call void @errfinish(ptr noundef @.str.3, i32 noundef 2888, ptr noundef @__func__.timestamptz_timetz)
  br label %42

42:                                               ; preds = %39, %37, %35
  unreachable

43:                                               ; No predecessors!
  br label %44

44:                                               ; preds = %43
  br label %45

45:                                               ; preds = %44, %28
  %46 = call ptr @palloc(i64 noundef 16)
  store ptr %46, ptr %5, align 8
  %47 = load ptr, ptr %7, align 8
  %48 = load i32, ptr %9, align 4
  %49 = load i32, ptr %8, align 4
  %50 = load ptr, ptr %5, align 8
  %51 = call i32 @tm2timetz(ptr noundef %47, i32 noundef %48, i32 noundef %49, ptr noundef %50)
  %52 = load ptr, ptr %5, align 8
  %53 = call i64 @TimeTzADTPGetDatum(ptr noundef %52)
  store i64 %53, ptr %2, align 8
  store i32 1, ptr %10, align 4
  br label %54

54:                                               ; preds = %45, %23
  call void @llvm.lifetime.end.p0(i64 4, ptr %9) #9
  call void @llvm.lifetime.end.p0(i64 4, ptr %8) #9
  call void @llvm.lifetime.end.p0(i64 8, ptr %7) #9
  call void @llvm.lifetime.end.p0(i64 56, ptr %6) #9
  call void @llvm.lifetime.end.p0(i64 8, ptr %5) #9
  call void @llvm.lifetime.end.p0(i64 8, ptr %4) #9
  %55 = load i64, ptr %2, align 8
  ret i64 %55
}