; Function Attrs: nounwind uwtable
define dso_local noundef i64 @timestamptz_timetz(ptr noundef captures(none) %0) local_unnamed_addr #0 {
  %2 = alloca %struct.pg_tm, align 8
  %3 = alloca i32, align 4
  %4 = alloca i32, align 4
  %5 = getelementptr inbounds nuw i8, ptr %0, i64 32
  %6 = load i64, ptr %5, align 8
  call void @llvm.lifetime.start.p0(i64 56, ptr nonnull %2) #16
  call void @llvm.lifetime.start.p0(i64 4, ptr nonnull %3) #16
  call void @llvm.lifetime.start.p0(i64 4, ptr nonnull %4) #16
  %7 = add i64 %6, -9223372036854775807
  %or.cond = icmp ult i64 %7, 2
  br i1 %or.cond, label %8, label %10

8:                                                ; preds = %1
  %9 = getelementptr inbounds nuw i8, ptr %0, i64 28
  store i8 1, ptr %9, align 4
  br label %35

10:                                               ; preds = %1
  %11 = call i32 @timestamp2tm(i64 noundef %6, ptr noundef nonnull %3, ptr noundef nonnull %2, ptr noundef nonnull %4, ptr noundef null, ptr noundef null) #16
  %.not = icmp eq i32 %11, 0
  br i1 %.not, label %16, label %12

12:                                               ; preds = %10
  %13 = call zeroext i1 @errstart_cold(i32 noundef 21, ptr noundef null) #15
  call void @llvm.assume(i1 %13)
  %14 = call i32 @errcode(i32 noundef 134217858) #16
  %15 = call i32 (ptr, ...) @errmsg(ptr noundef nonnull @.str.19) #16
  call void @errfinish(ptr noundef nonnull @.str.3, i32 noundef 2888, ptr noundef nonnull @__func__.timestamptz_timetz) #16
  unreachable

16:                                               ; preds = %10
  %17 = call ptr @palloc(i64 noundef 16) #16
  %18 = load i32, ptr %4, align 4
  %19 = load i32, ptr %3, align 4
  %20 = getelementptr inbounds nuw i8, ptr %2, i64 8
  %21 = load i32, ptr %20, align 8
  %22 = mul i32 %21, 60
  %23 = getelementptr inbounds nuw i8, ptr %2, i64 4
  %24 = load i32, ptr %23, align 4
  %25 = add i32 %22, %24
  %26 = mul i32 %25, 60
  %27 = load i32, ptr %2, align 8
  %28 = add i32 %26, %27
  %29 = sext i32 %28 to i64
  %30 = mul nsw i64 %29, 1000000
  %31 = sext i32 %18 to i64
  %32 = add nsw i64 %30, %31
  store i64 %32, ptr %17, align 8
  %33 = getelementptr inbounds nuw i8, ptr %17, i64 8
  store i32 %19, ptr %33, align 8
  %34 = ptrtoint ptr %17 to i64
  br label %35

35:                                               ; preds = %16, %8
  %.0 = phi i64 [ 0, %8 ], [ %34, %16 ]
  call void @llvm.lifetime.end.p0(i64 4, ptr nonnull %4) #16
  call void @llvm.lifetime.end.p0(i64 4, ptr nonnull %3) #16
  call void @llvm.lifetime.end.p0(i64 56, ptr nonnull %2) #16
  ret i64 %.0
}